; Function Attrs: mustprogress uwtable
define internal noundef zeroext i1 @"_ZNSt17_Function_handlerIFbvEZN6google8protobuf2io7Printer9ValueImplILb1EE18ToStringOrCallbackIZNS2_8compiler3cpp13FileGenerator24GenerateSharedHeaderCodeEPS4_E3$_2vEESt7variantIJNSt7__cxx1112basic_stringIcSt11char_traitsIcESaIcEEESt8functionIS0_EEEOT_NS6_5Rank2EEUlvE_E9_M_invokeERKSt9_Any_data"(ptr nocapture noundef nonnull readonly align 8 dereferenceable(16) %__functor) #3 align 2 {
entry:
  %__functor.val = load ptr, ptr %__functor, align 8
  %0 = getelementptr inbounds i8, ptr %__functor.val, i64 16
  %1 = load i8, ptr %0, align 8
  %2 = and i8 %1, 1
  %tobool.not.i.i.i = icmp eq i8 %2, 0
  br i1 %tobool.not.i.i.i, label %if.end.i.i.i, label %"_ZSt10__invoke_rIbRZN6google8protobuf2io7Printer9ValueImplILb1EE18ToStringOrCallbackIZNS1_8compiler3cpp13FileGenerator24GenerateSharedHeaderCodeEPS3_E3$_2vEESt7variantIJNSt7__cxx1112basic_stringIcSt11char_traitsIcESaIcEEESt8functionIFbvEEEEOT_NS5_5Rank2EEUlvE_JEENSt9enable_ifIX16is_invocable_r_vISN_T0_DpT1_EESN_E4typeEOST_DpOSU_.exit"

if.end.i.i.i:                                     ; preds = %entry
  store i8 1, ptr %0, align 8
  %this.val.i.i.i = load ptr, ptr %__functor.val, align 8
  %3 = getelementptr inbounds i8, ptr %__functor.val, i64 8
  %this.val1.i.i.i = load ptr, ptr %3, align 8
  %this.val1.val.i.i.i = load ptr, ptr %this.val1.i.i.i, align 8
  tail call void @_ZN6google8protobuf8compiler3cpp13FileGenerator19GenerateMacroUndefsEPNS0_2io7PrinterE(ptr noundef nonnull align 8 dereferenceable(752) %this.val.i.i.i, ptr noundef %this.val1.val.i.i.i)
  store i8 0, ptr %0, align 8
  br label %"_ZSt10__invoke_rIbRZN6google8protobuf2io7Printer9ValueImplILb1EE18ToStringOrCallbackIZNS1_8compiler3cpp13FileGenerator24GenerateSharedHeaderCodeEPS3_E3$_2vEESt7variantIJNSt7__cxx1112basic_stringIcSt11char_traitsIcESaIcEEESt8functionIFbvEEEEOT_NS5_5Rank2EEUlvE_JEENSt9enable_ifIX16is_invocable_r_vISN_T0_DpT1_EESN_E4typeEOST_DpOSU_.exit"

"_ZSt10__invoke_rIbRZN6google8protobuf2io7Printer9ValueImplILb1EE18ToStringOrCallbackIZNS1_8compiler3cpp13FileGenerator24GenerateSharedHeaderCodeEPS3_E3$_2vEESt7variantIJNSt7__cxx1112basic_stringIcSt11char_traitsIcESaIcEEESt8functionIFbvEEEEOT_NS5_5Rank2EEUlvE_JEENSt9enable_ifIX16is_invocable_r_vISN_T0_DpT1_EESN_E4typeEOST_DpOSU_.exit": ; preds = %entry, %if.end.i.i.i
  ret i1 %tobool.not.i.i.i
}